target datalayout = "e-m:e-p270:32:32-p271:32:32-p272:64:64-i64:64-i128:128-f80:128-n8:16:32:64-S128"
target triple = "x86_64-pc-linux-gnu"

%"class.smt::quick_checker::collector" = type { ptr, ptr, i8, i32, %class.svector, %class.vector.0, %class.vector.0, %class.hashtable }
%class.svector = type { %class.vector }
%class.vector = type { ptr }
%class.vector.0 = type { ptr }
%class.hashtable = type { %class.core_hashtable.base, [4 x i8] }
%class.core_hashtable.base = type <{ ptr, i32, i32, i32 }>
%class.symbol = type { ptr }
%class.quantifier = type { %class.expr, i32, i32, ptr, ptr, i32, i32, i8, i8, %class.symbol, %class.symbol, i32, i32, [0 x i8] }
%class.expr = type { %class.ast }
%class.ast = type { i32, i32, i32, i32 }
%"struct.smt::quick_checker::collector::entry" = type <{ ptr, ptr, i32, [4 x i8] }>
%class.app = type { %class.expr, ptr, i32, %struct.app_flags, [0 x ptr] }
%struct.app_flags = type <{ i16, i8, i8 }>
%class.flet = type <{ ptr, i8, [7 x i8] }>

; Function Attrs: mustprogress nounwind uwtable
define linkonce_odr hidden noundef zeroext i1 @_ZNK3app9is_groundEv(ptr noundef nonnull align 8 dereferenceable(32) %0) #4 comdat align 2 {
  %2 = alloca ptr, align 8
  store ptr %0, ptr %2, align 8, !tbaa !593
  %3 = load ptr, ptr %2, align 8
  %4 = getelementptr inbounds nuw %class.app, ptr %3, i32 0, i32 3
  %5 = getelementptr inbounds nuw %struct.app_flags, ptr %4, i32 0, i32 1
  %6 = load i8, ptr %5, align 2
  %7 = and i8 %6, 1
  %8 = zext i8 %7 to i32
  %9 = icmp ne i32 %8, 0
  ret i1 %9
}

; Function Attrs: inlinehint mustprogress nounwind uwtable
define linkonce_odr hidden noundef ptr @_Z6to_appPK3ast(ptr noundef %0) #8 comdat {
  %2 = alloca ptr, align 8
  store ptr %0, ptr %2, align 8, !tbaa !602
  %3 = load ptr, ptr %2, align 8, !tbaa !602
  ret ptr %3
}

; Function Attrs: inlinehint mustprogress nounwind uwtable
define linkonce_odr hidden noundef zeroext i1 @_Z6is_appPK3ast(ptr noundef %0) #8 comdat {
  %2 = alloca ptr, align 8
  store ptr %0, ptr %2, align 8, !tbaa !602
  %3 = load ptr, ptr %2, align 8, !tbaa !602
  %4 = call noundef i32 @_ZNK3ast8get_kindEv(ptr noundef nonnull align 4 dereferenceable(16) %3)
  %5 = icmp eq i32 %4, 0
  ret i1 %5
}

; Function Attrs: mustprogress nounwind uwtable
define linkonce_odr hidden noundef i32 @_ZNK3ast8get_kindEv(ptr noundef nonnull align 4 dereferenceable(16) %0) #4 comdat align 2 {
  %2 = alloca ptr, align 8
  store ptr %0, ptr %2, align 8, !tbaa !602
  %3 = load ptr, ptr %2, align 8
  %4 = getelementptr inbounds nuw %class.ast, ptr %3, i32 0, i32 1
  %5 = load i32, ptr %4, align 4
  %6 = and i32 %5, 65535
  ret i32 %6
}

; Function Attrs: inlinehint mustprogress nounwind uwtable
define linkonce_odr hidden noundef ptr @_Z6to_appP3ast(ptr noundef %0) #8 comdat {
  %2 = alloca ptr, align 8
  store ptr %0, ptr %2, align 8, !tbaa !602
  %3 = load ptr, ptr %2, align 8, !tbaa !602
  ret ptr %3
}

; Function Attrs: mustprogress uwtable
define linkonce_odr hidden void @_ZN14core_hashtableI18default_hash_entryIN3smt13quick_checker9collector5entryEE8obj_hashIS4_E10default_eqIS4_EE6insertERKS4_(ptr noundef nonnull align 8 dereferenceable(20) %0, ptr noundef nonnull align 8 dereferenceable(20) %1) #6 comdat align 2 {
  %3 = alloca ptr, align 8
  %4 = alloca ptr, align 8
  %5 = alloca %"struct.smt::quick_checker::collector::entry", align 8
  store ptr %0, ptr %3, align 8, !tbaa !567
  store ptr %1, ptr %4, align 8, !tbaa !608
  %6 = load ptr, ptr %3, align 8
  call void @llvm.lifetime.start.p0(i64 24, ptr %5) #3
  %7 = load ptr, ptr %4, align 8, !tbaa !608
  call void @llvm.memcpy.p0.p0.i64(ptr align 8 %5, ptr align 8 %7, i64 24, i1 false), !tbaa.struct !614
  call void @_ZN14core_hashtableI18default_hash_entryIN3smt13quick_checker9collector5entryEE8obj_hashIS4_E10default_eqIS4_EE6insertEOS4_(ptr noundef nonnull align 8 dereferenceable(20) %6, ptr noundef nonnull align 8 dereferenceable(20) %5)
  call void @llvm.lifetime.end.p0(i64 24, ptr %5) #3
  ret void
}

; Function Attrs: mustprogress uwtable
define linkonce_odr hidden noundef zeroext i1 @_ZNK14core_hashtableI18default_hash_entryIN3smt13quick_checker9collector5entryEE8obj_hashIS4_E10default_eqIS4_EE8containsERKS4_(ptr noundef nonnull align 8 dereferenceable(20) %0, ptr noundef nonnull align 8 dereferenceable(20) %1) #6 comdat align 2 {
  %3 = alloca ptr, align 8
  %4 = alloca ptr, align 8
  store ptr %0, ptr %3, align 8, !tbaa !567
  store ptr %1, ptr %4, align 8, !tbaa !608
  %5 = load ptr, ptr %3, align 8
  %6 = load ptr, ptr %4, align 8, !tbaa !608
  %7 = call noundef ptr @_ZNK14core_hashtableI18default_hash_entryIN3smt13quick_checker9collector5entryEE8obj_hashIS4_E10default_eqIS4_EE9find_coreERKS4_(ptr noundef nonnull align 8 dereferenceable(20) %5, ptr noundef nonnull align 8 dereferenceable(20) %6)
  %8 = icmp ne ptr %7, null
  ret i1 %8
}

; Function Attrs: mustprogress nounwind uwtable
define linkonce_odr hidden void @_ZN3smt13quick_checker9collector5entryC2EP4exprP9func_declj(ptr noundef nonnull align 8 dereferenceable(20) %0, ptr noundef %1, ptr noundef %2, i32 noundef %3) unnamed_addr #4 comdat align 2 {
  %5 = alloca ptr, align 8
  %6 = alloca ptr, align 8
  %7 = alloca ptr, align 8
  %8 = alloca i32, align 4
  store ptr %0, ptr %5, align 8, !tbaa !608
  store ptr %1, ptr %6, align 8, !tbaa !594
  store ptr %2, ptr %7, align 8, !tbaa !576
  store i32 %3, ptr %8, align 4, !tbaa !8
  %9 = load ptr, ptr %5, align 8
  %10 = getelementptr inbounds nuw %"struct.smt::quick_checker::collector::entry", ptr %9, i32 0, i32 0
  %11 = load ptr, ptr %6, align 8, !tbaa !594
  store ptr %11, ptr %10, align 8, !tbaa !610
  %12 = getelementptr inbounds nuw %"struct.smt::quick_checker::collector::entry", ptr %9, i32 0, i32 1
  %13 = load ptr, ptr %7, align 8, !tbaa !576
  store ptr %13, ptr %12, align 8, !tbaa !612
  %14 = getelementptr inbounds nuw %"struct.smt::quick_checker::collector::entry", ptr %9, i32 0, i32 2
  %15 = load i32, ptr %8, align 4, !tbaa !8
  store i32 %15, ptr %14, align 8, !tbaa !613
  ret void
}

; Function Attrs: inlinehint mustprogress uwtable
define linkonce_odr hidden noundef zeroext i1 @_Z9is_groundPK4expr(ptr noundef %0) #7 comdat {
  %2 = alloca ptr, align 8
  store ptr %0, ptr %2, align 8, !tbaa !594
  %3 = load ptr, ptr %2, align 8, !tbaa !594
  %4 = call noundef zeroext i1 @_Z6is_appPK3ast(ptr noundef %3)
  br i1 %4, label %5, label %9

5:                                                ; preds = %1
  %6 = load ptr, ptr %2, align 8, !tbaa !594
  %7 = call noundef ptr @_Z6to_appPK3ast(ptr noundef %6)
  %8 = call noundef zeroext i1 @_ZNK3app9is_groundEv(ptr noundef nonnull align 8 dereferenceable(32) %7)
  br label %9

9:                                                ; preds = %5, %1
  %10 = phi i1 [ false, %1 ], [ %8, %5 ]
  ret i1 %10
}

; Function Attrs: inlinehint mustprogress uwtable
define linkonce_odr hidden noundef zeroext i1 @_Z6is_varPK3ast(ptr noundef %0) #7 comdat {
  %2 = alloca ptr, align 8
  store ptr %0, ptr %2, align 8, !tbaa !602
  %3 = load ptr, ptr %2, align 8, !tbaa !602
  %4 = call noundef i32 @_ZNK3ast8get_kindEv(ptr noundef nonnull align 4 dereferenceable(16) %3)
  %5 = icmp eq i32 %4, 1
  ret i1 %5
}

; Function Attrs: inlinehint mustprogress nounwind uwtable
define linkonce_odr hidden noundef zeroext i1 @_Z13is_quantifierPK3ast(ptr noundef %0) #8 comdat {
  %2 = alloca ptr, align 8
  store ptr %0, ptr %2, align 8, !tbaa !602
  %3 = load ptr, ptr %2, align 8, !tbaa !602
  %4 = call noundef i32 @_ZNK3ast8get_kindEv(ptr noundef nonnull align 4 dereferenceable(16) %3)
  %5 = icmp eq i32 %4, 2
  ret i1 %5
}

; Function Attrs: mustprogress nounwind uwtable
define linkonce_odr hidden void @_ZN4fletIbED2Ev(ptr noundef nonnull align 8 dereferenceable(9) %0) unnamed_addr #4 comdat align 2 {
  %2 = alloca ptr, align 8
  store ptr %0, ptr %2, align 8, !tbaa !623
  %3 = load ptr, ptr %2, align 8
  %4 = getelementptr inbounds nuw %class.flet, ptr %3, i32 0, i32 1
  %5 = load i8, ptr %4, align 8, !tbaa !625, !range !12, !noundef !13
  %6 = trunc i8 %5 to i1
  %7 = getelementptr inbounds nuw %class.flet, ptr %3, i32 0, i32 0
  %8 = load ptr, ptr %7, align 8, !tbaa !627
  %9 = zext i1 %6 to i8
  store i8 %9, ptr %8, align 1, !tbaa !10
  ret void
}

; Function Attrs: mustprogress uwtable
define hidden void @_ZN3smt13quick_checker9collector7collectEP4exprP9func_declj(ptr noundef nonnull align 8 dereferenceable(72) %0, ptr noundef %1, ptr noundef %2, i32 noundef %3) #6 align 2 {
  %5 = alloca ptr, align 8
  %6 = alloca ptr, align 8
  %7 = alloca ptr, align 8
  %8 = alloca i32, align 4
  %9 = alloca %"struct.smt::quick_checker::collector::entry", align 8
  %10 = alloca i32, align 4
  store ptr %0, ptr %5, align 8, !tbaa !28
  store ptr %1, ptr %6, align 8, !tbaa !594
  store ptr %2, ptr %7, align 8, !tbaa !576
  store i32 %3, ptr %8, align 4, !tbaa !8
  %11 = load ptr, ptr %5, align 8
  %12 = load ptr, ptr %6, align 8, !tbaa !594
  %13 = call noundef zeroext i1 @_Z13is_quantifierPK3ast(ptr noundef %12)
  br i1 %13, label %14, label %15

14:                                               ; preds = %4
  br label %38

15:                                               ; preds = %4
  %16 = load ptr, ptr %6, align 8, !tbaa !594
  %17 = call noundef zeroext i1 @_Z6is_varPK3ast(ptr noundef %16)
  br i1 %17, label %18, label %19

18:                                               ; preds = %15
  br label %38

19:                                               ; preds = %15
  %20 = load ptr, ptr %6, align 8, !tbaa !594
  %21 = call noundef zeroext i1 @_Z9is_groundPK4expr(ptr noundef %20)
  br i1 %21, label %22, label %23

22:                                               ; preds = %19
  br label %38

23:                                               ; preds = %19
  call void @llvm.lifetime.start.p0(i64 24, ptr %9) #3
  %24 = load ptr, ptr %6, align 8, !tbaa !594
  %25 = load ptr, ptr %7, align 8, !tbaa !576
  %26 = load i32, ptr %8, align 4, !tbaa !8
  call void @_ZN3smt13quick_checker9collector5entryC2EP4exprP9func_declj(ptr noundef nonnull align 8 dereferenceable(20) %9, ptr noundef %24, ptr noundef %25, i32 noundef %26)
  %27 = getelementptr inbounds nuw %"class.smt::quick_checker::collector", ptr %11, i32 0, i32 7
  %28 = call noundef zeroext i1 @_ZNK14core_hashtableI18default_hash_entryIN3smt13quick_checker9collector5entryEE8obj_hashIS4_E10default_eqIS4_EE8containsERKS4_(ptr noundef nonnull align 8 dereferenceable(20) %27, ptr noundef nonnull align 8 dereferenceable(20) %9)
  br i1 %28, label %29, label %30

29:                                               ; preds = %23
  store i32 1, ptr %10, align 4
  br label %36

30:                                               ; preds = %23
  %31 = getelementptr inbounds nuw %"class.smt::quick_checker::collector", ptr %11, i32 0, i32 7
  call void @_ZN14core_hashtableI18default_hash_entryIN3smt13quick_checker9collector5entryEE8obj_hashIS4_E10default_eqIS4_EE6insertERKS4_(ptr noundef nonnull align 8 dereferenceable(20) %31, ptr noundef nonnull align 8 dereferenceable(20) %9)
  %32 = load ptr, ptr %6, align 8, !tbaa !594
  %33 = call noundef ptr @_Z6to_appP3ast(ptr noundef %32)
  %34 = load ptr, ptr %7, align 8, !tbaa !576
  %35 = load i32, ptr %8, align 4, !tbaa !8
  call void @_ZN3smt13quick_checker9collector12collect_coreEP3appP9func_declj(ptr noundef nonnull align 8 dereferenceable(72) %11, ptr noundef %33, ptr noundef %34, i32 noundef %35)
  store i32 0, ptr %10, align 4
  br label %36

36:                                               ; preds = %30, %29
  call void @llvm.lifetime.end.p0(i64 24, ptr %9) #3
  %37 = load i32, ptr %10, align 4
  switch i32 %37, label %39 [
    i32 0, label %38
    i32 1, label %38
  ]

38:                                               ; preds = %14, %18, %22, %36, %36
  ret void

39:                                               ; preds = %36
  unreachable
}

; Function Attrs: mustprogress nounwind uwtable
define linkonce_odr hidden noundef ptr @_ZNK10quantifier8get_exprEv(ptr noundef nonnull align 8 dereferenceable(80) %0) #4 comdat align 2 {
  %2 = alloca ptr, align 8
  store ptr %0, ptr %2, align 8, !tbaa !545
  %3 = load ptr, ptr %2, align 8
  %4 = getelementptr inbounds nuw %class.quantifier, ptr %3, i32 0, i32 3
  %5 = load ptr, ptr %4, align 8, !tbaa !628
  ret ptr %5
}

; Function Attrs: mustprogress nounwind uwtable
define linkonce_odr hidden void @_ZN4fletIbEC2ERbRKb(ptr noundef nonnull align 8 dereferenceable(9) %0, ptr noundef nonnull align 1 dereferenceable(1) %1, ptr noundef nonnull align 1 dereferenceable(1) %2) unnamed_addr #4 comdat align 2 {
  %4 = alloca ptr, align 8
  %5 = alloca ptr, align 8
  %6 = alloca ptr, align 8
  store ptr %0, ptr %4, align 8, !tbaa !623
  store ptr %1, ptr %5, align 8, !tbaa !555
  store ptr %2, ptr %6, align 8, !tbaa !555
  %7 = load ptr, ptr %4, align 8
  %8 = getelementptr inbounds nuw %class.flet, ptr %7, i32 0, i32 0
  %9 = load ptr, ptr %5, align 8, !tbaa !555
  store ptr %9, ptr %8, align 8, !tbaa !555
  %10 = getelementptr inbounds nuw %class.flet, ptr %7, i32 0, i32 1
  %11 = load ptr, ptr %5, align 8, !tbaa !555
  %12 = load i8, ptr %11, align 1, !tbaa !10, !range !12, !noundef !13
  %13 = trunc i8 %12 to i1
  %14 = zext i1 %13 to i8
  store i8 %14, ptr %10, align 8, !tbaa !625
  %15 = load ptr, ptr %6, align 8, !tbaa !555
  %16 = load i8, ptr %15, align 1, !tbaa !10, !range !12, !noundef !13
  %17 = trunc i8 %16 to i1
  %18 = getelementptr inbounds nuw %class.flet, ptr %7, i32 0, i32 0
  %19 = load ptr, ptr %18, align 8, !tbaa !627
  %20 = zext i1 %17 to i8
  store i8 %20, ptr %19, align 1, !tbaa !10
  ret void
}

; Function Attrs: mustprogress uwtable
define hidden void @_ZN3smt13quick_checker9collectorclEP10quantifierbR6vectorI10ptr_vectorINS_5enodeEELb1EjE(ptr noundef nonnull align 8 dereferenceable(72) %0, ptr noundef %1, i1 noundef zeroext %2, ptr noundef nonnull align 8 dereferenceable(8) %3) #6 align 2 personality ptr @__gxx_personality_v0 {
  %5 = alloca ptr, align 8
  %6 = alloca ptr, align 8
  %7 = alloca i8, align 1
  %8 = alloca ptr, align 8
  %9 = alloca %class.flet, align 8
  %10 = alloca ptr, align 8
  %11 = alloca i32, align 4
  store ptr %0, ptr %5, align 8, !tbaa !28
  store ptr %1, ptr %6, align 8, !tbaa !545
  %12 = zext i1 %2 to i8
  store i8 %12, ptr %7, align 1, !tbaa !10
  store ptr %3, ptr %8, align 8, !tbaa !615
  %13 = load ptr, ptr %5, align 8
  call void @llvm.lifetime.start.p0(i64 16, ptr %9) #3
  %14 = getelementptr inbounds nuw %"class.smt::quick_checker::collector", ptr %13, i32 0, i32 2
  call void @_ZN4fletIbEC2ERbRKb(ptr noundef nonnull align 8 dereferenceable(9) %9, ptr noundef nonnull align 1 dereferenceable(1) %14, ptr noundef nonnull align 1 dereferenceable(1) %7)
  %15 = load ptr, ptr %6, align 8, !tbaa !545
  invoke void @_ZN3smt13quick_checker9collector4initEP10quantifier(ptr noundef nonnull align 8 dereferenceable(72) %13, ptr noundef %15)
          to label %16 unwind label %23

16:                                               ; preds = %4
  %17 = load ptr, ptr %6, align 8, !tbaa !545
  %18 = invoke noundef ptr @_ZNK10quantifier8get_exprEv(ptr noundef nonnull align 8 dereferenceable(80) %17)
          to label %19 unwind label %23

19:                                               ; preds = %16
  invoke void @_ZN3smt13quick_checker9collector7collectEP4exprP9func_declj(ptr noundef nonnull align 8 dereferenceable(72) %13, ptr noundef %18, ptr noundef null, i32 noundef 0)
          to label %20 unwind label %23

20:                                               ; preds = %19
  %21 = load ptr, ptr %8, align 8, !tbaa !615
  invoke void @_ZN3smt13quick_checker9collector11save_resultER6vectorI10ptr_vectorINS_5enodeEELb1EjE(ptr noundef nonnull align 8 dereferenceable(72) %13, ptr noundef nonnull align 8 dereferenceable(8) %21)
          to label %22 unwind label %23

22:                                               ; preds = %20
  call void @_ZN4fletIbED2Ev(ptr noundef nonnull align 8 dereferenceable(9) %9) #3
  call void @llvm.lifetime.end.p0(i64 16, ptr %9) #3
  ret void

23:                                               ; preds = %20, %19, %16, %4
  %24 = landingpad { ptr, i32 }
          cleanup
  %25 = extractvalue { ptr, i32 } %24, 0
  store ptr %25, ptr %10, align 8
  %26 = extractvalue { ptr, i32 } %24, 1
  store i32 %26, ptr %11, align 4
  call void @_ZN4fletIbED2Ev(ptr noundef nonnull align 8 dereferenceable(9) %9) #3
  call void @llvm.lifetime.end.p0(i64 16, ptr %9) #3
  br label %27

27:                                               ; preds = %23
  %28 = load ptr, ptr %10, align 8
  %29 = load i32, ptr %11, align 4
  %30 = insertvalue { ptr, i32 } poison, ptr %28, 0
  %31 = insertvalue { ptr, i32 } %30, i32 %29, 1
  resume { ptr, i32 } %31
}