; Function Attrs: mustprogress uwtable
define hidden void @_ZN3smt13quick_checker9collectorclEP10quantifierbR6vectorI10ptr_vectorINS_5enodeEELb1EjE(ptr noundef nonnull align 8 dereferenceable(72) initializes((20, 24)) %0, ptr noundef readonly captures(none) %1, i1 noundef zeroext %2, ptr noundef nonnull align 8 dereferenceable(8) %3) local_unnamed_addr #4 align 2 personality ptr @__gxx_personality_v0 {
  %5 = alloca %"struct.smt::quick_checker::collector::entry", align 8
  %6 = alloca %"struct.smt::quick_checker::collector::entry", align 8
  %7 = zext i1 %2 to i8
  %8 = getelementptr inbounds nuw i8, ptr %0, i64 16
  %9 = load i8, ptr %8, align 8, !tbaa !533, !range !546, !noundef !547
  store i8 %7, ptr %8, align 8, !tbaa !533
  invoke void @_ZN3smt13quick_checker9collector4initEP10quantifier(ptr noundef nonnull align 8 dereferenceable(72) %0, ptr noundef %1)
          to label %10 unwind label %24

10:                                               ; preds = %4
  %11 = getelementptr inbounds nuw i8, ptr %1, i64 24
  %12 = load ptr, ptr %11, align 8, !tbaa !600
  %13 = getelementptr inbounds nuw i8, ptr %12, i64 4
  %14 = load i32, ptr %13, align 4
  %trunc.i = trunc i32 %14 to i16
  switch i16 %trunc.i, label %_Z9is_groundPK4expr.exit.thread.i [
    i16 2, label %_ZN3smt13quick_checker9collector7collectEP4exprP9func_declj.exit
    i16 1, label %_ZN3smt13quick_checker9collector7collectEP4exprP9func_declj.exit
    i16 0, label %_Z9is_groundPK4expr.exit.i
  ]

_Z9is_groundPK4expr.exit.i:                       ; preds = %10
  %15 = getelementptr inbounds nuw i8, ptr %12, i64 30
  %16 = load i8, ptr %15, align 2
  %17 = and i8 %16, 1
  %.not.i = icmp eq i8 %17, 0
  br i1 %.not.i, label %_Z9is_groundPK4expr.exit.thread.i, label %_ZN3smt13quick_checker9collector7collectEP4exprP9func_declj.exit

_Z9is_groundPK4expr.exit.thread.i:                ; preds = %_Z9is_groundPK4expr.exit.i, %10
  call void @llvm.lifetime.start.p0(i64 24, ptr nonnull %6) #19
  store ptr %12, ptr %6, align 8, !tbaa !586
  %18 = getelementptr inbounds nuw i8, ptr %6, i64 8
  store ptr null, ptr %18, align 8, !tbaa !587
  %19 = getelementptr inbounds nuw i8, ptr %6, i64 16
  store i32 0, ptr %19, align 8, !tbaa !588
  %20 = getelementptr inbounds nuw i8, ptr %0, i64 48
  %21 = invoke noundef ptr @_ZNK14core_hashtableI18default_hash_entryIN3smt13quick_checker9collector5entryEE8obj_hashIS4_E10default_eqIS4_EE9find_coreERKS4_(ptr noundef nonnull align 8 dereferenceable(20) %20, ptr noundef nonnull align 8 dereferenceable(20) %6)
          to label %.noexc unwind label %24

.noexc:                                           ; preds = %_Z9is_groundPK4expr.exit.thread.i
  %.not9.i = icmp eq ptr %21, null
  br i1 %.not9.i, label %22, label %.noexc6

22:                                               ; preds = %.noexc
  call void @llvm.lifetime.start.p0(i64 24, ptr nonnull %5) #19
  call void @llvm.memcpy.p0.p0.i64(ptr noundef nonnull align 8 dereferenceable(24) %5, ptr noundef nonnull align 8 dereferenceable(24) %6, i64 24, i1 false), !tbaa.struct !589
  invoke void @_ZN14core_hashtableI18default_hash_entryIN3smt13quick_checker9collector5entryEE8obj_hashIS4_E10default_eqIS4_EE6insertEOS4_(ptr noundef nonnull align 8 dereferenceable(20) %20, ptr noundef nonnull align 8 dereferenceable(20) %5)
          to label %.noexc5 unwind label %24

.noexc5:                                          ; preds = %22
  call void @llvm.lifetime.end.p0(i64 24, ptr nonnull %5) #19
  invoke void @_ZN3smt13quick_checker9collector12collect_coreEP3appP9func_declj(ptr noundef nonnull align 8 dereferenceable(72) %0, ptr noundef nonnull %12, ptr noundef null, i32 noundef 0) #23
          to label %.noexc6 unwind label %24

.noexc6:                                          ; preds = %.noexc5, %.noexc
  call void @llvm.lifetime.end.p0(i64 24, ptr nonnull %6) #19
  br label %_ZN3smt13quick_checker9collector7collectEP4exprP9func_declj.exit

_ZN3smt13quick_checker9collector7collectEP4exprP9func_declj.exit: ; preds = %.noexc6, %_Z9is_groundPK4expr.exit.i, %10, %10
  invoke void @_ZN3smt13quick_checker9collector11save_resultER6vectorI10ptr_vectorINS_5enodeEELb1EjE(ptr noundef nonnull align 8 dereferenceable(72) %0, ptr noundef nonnull align 8 dereferenceable(8) %3)
          to label %23 unwind label %24

23:                                               ; preds = %_ZN3smt13quick_checker9collector7collectEP4exprP9func_declj.exit
  store i8 %9, ptr %8, align 8, !tbaa !533
  ret void

24:                                               ; preds = %.noexc5, %22, %_Z9is_groundPK4expr.exit.thread.i, %_ZN3smt13quick_checker9collector7collectEP4exprP9func_declj.exit, %4
  %25 = landingpad { ptr, i32 }
          cleanup
  store i8 %9, ptr %8, align 8, !tbaa !533
  resume { ptr, i32 } %25
}